target datalayout = "e-m:e-p270:32:32-p271:32:32-p272:64:64-i64:64-i128:128-f80:128-n8:16:32:64-S128"
target triple = "x86_64-pc-linux-gnu"

@tcg_splitwx_diff = external global i64, align 8

; Function Attrs: nounwind sspstrong uwtable
define internal ptr @tcg_gen_op1i(i32 noundef %0, i32 noundef %1, i64 noundef %2) #3 {
  %4 = alloca i32, align 4
  %5 = alloca i32, align 4
  %6 = alloca i64, align 8
  store i32 %0, ptr %4, align 4
  store i32 %1, ptr %5, align 4
  store i64 %2, ptr %6, align 8
  %7 = load i32, ptr %4, align 4
  %8 = load i32, ptr %5, align 4
  %9 = load i64, ptr %6, align 8
  %10 = call ptr @tcg_gen_op1(i32 noundef %7, i32 noundef %8, i64 noundef %9)
  ret ptr %10
}

; Function Attrs: inlinehint nounwind sspstrong uwtable
define internal ptr @tcg_splitwx_to_rx(ptr noundef %0) #4 {
  %2 = alloca ptr, align 8
  store ptr %0, ptr %2, align 8
  %3 = load ptr, ptr %2, align 8
  %4 = icmp ne ptr %3, null
  br i1 %4, label %5, label %9

5:                                                ; preds = %1
  %6 = load ptr, ptr %2, align 8
  %7 = load i64, ptr @tcg_splitwx_diff, align 8
  %8 = getelementptr inbounds nuw i8, ptr %6, i64 %7
  br label %10

9:                                                ; preds = %1
  br label %10

10:                                               ; preds = %9, %5
  %11 = phi ptr [ %8, %5 ], [ null, %9 ]
  ret ptr %11
}

; Function Attrs: nounwind sspstrong uwtable
define dso_local void @tcg_gen_exit_tb(ptr noundef %0, i32 noundef %1) #3 {
  %3 = alloca ptr, align 8
  %4 = alloca i32, align 4
  %5 = alloca i64, align 8
  store ptr %0, ptr %3, align 8
  store i32 %1, ptr %4, align 4
  call void @llvm.lifetime.start.p0(i64 8, ptr %5) #7
  %6 = load ptr, ptr %3, align 8
  %7 = call ptr @tcg_splitwx_to_rx(ptr noundef %6)
  %8 = ptrtoint ptr %7 to i64
  %9 = load i32, ptr %4, align 4
  %10 = zext i32 %9 to i64
  %11 = add i64 %8, %10
  store i64 %11, ptr %5, align 8
  %12 = load ptr, ptr %3, align 8
  %13 = icmp eq ptr %12, null
  br i1 %13, label %14, label %22

14:                                               ; preds = %2
  br label %15

15:                                               ; preds = %14
  %16 = load i32, ptr %4, align 4
  %17 = icmp eq i32 %16, 0
  br i1 %17, label %19, label %18

18:                                               ; preds = %15
  unreachable

19:                                               ; preds = %15
  br label %20

20:                                               ; preds = %19
  br label %21

21:                                               ; preds = %20
  br label %35

22:                                               ; preds = %2
  %23 = load i32, ptr %4, align 4
  %24 = icmp ule i32 %23, 1
  br i1 %24, label %25, label %26

25:                                               ; preds = %22
  br label %34

26:                                               ; preds = %22
  br label %27

27:                                               ; preds = %26
  %28 = load i32, ptr %4, align 4
  %29 = icmp eq i32 %28, 3
  br i1 %29, label %31, label %30

30:                                               ; preds = %27
  unreachable

31:                                               ; preds = %27
  br label %32

32:                                               ; preds = %31
  br label %33

33:                                               ; preds = %32
  br label %34

34:                                               ; preds = %33, %25
  br label %35

35:                                               ; preds = %34, %21
  %36 = load i64, ptr %5, align 8
  %37 = call ptr @tcg_gen_op1i(i32 noundef 130, i32 noundef 0, i64 noundef %36)
  call void @llvm.lifetime.end.p0(i64 8, ptr %5) #7
  ret void
}