; Function Attrs: nounwind sspstrong uwtable
define dso_local void @tcg_gen_exit_tb(ptr noundef %0, i32 noundef %1) local_unnamed_addr #2 {
  %.not.i = icmp eq ptr %0, null
  br i1 %.not.i, label %.sink.split, label %3

3:                                                ; preds = %2
  %4 = load i64, ptr @tcg_splitwx_diff, align 8
  %5 = getelementptr inbounds nuw i8, ptr %0, i64 %4
  %6 = icmp ult i32 %1, 2
  br i1 %6, label %8, label %.sink.split

.sink.split:                                      ; preds = %3, %2
  %.sink6 = phi i32 [ 0, %2 ], [ 3, %3 ]
  %.ph = phi ptr [ null, %2 ], [ %5, %3 ]
  %7 = icmp eq i32 %1, %.sink6
  tail call void @llvm.assume(i1 %7)
  br label %8

8:                                                ; preds = %.sink.split, %3
  %9 = phi ptr [ %5, %3 ], [ %.ph, %.sink.split ]
  %10 = ptrtoint ptr %9 to i64
  %11 = zext nneg i32 %1 to i64
  %12 = add i64 %10, %11
  %13 = tail call noundef ptr @tcg_gen_op1(i32 noundef 130, i32 noundef 0, i64 noundef %12)
  ret void
}